target datalayout = "e-m:e-p270:32:32-p271:32:32-p272:64:64-i64:64-i128:128-f80:128-n8:16:32:64-S128"
target triple = "x86_64-pc-linux-gnu"

%struct.asn1_string_st = type { i32, i32, ptr, i64 }

@.str = private unnamed_addr constant [31 x i8] c"../openssl/crypto/cms/cms_io.c\00", align 1
@__func__.CMS_stream = private unnamed_addr constant [11 x i8] c"CMS_stream\00", align 1

; Function Attrs: nounwind uwtable
define i32 @CMS_stream(ptr noundef %0, ptr noundef %1) #0 {
  %3 = alloca i32, align 4
  %4 = alloca ptr, align 8
  %5 = alloca ptr, align 8
  %6 = alloca ptr, align 8
  %7 = alloca i32, align 4
  store ptr %0, ptr %4, align 8, !tbaa !3
  store ptr %1, ptr %5, align 8, !tbaa !8
  call void @llvm.lifetime.start.p0(i64 8, ptr %6) #3
  %8 = load ptr, ptr %5, align 8, !tbaa !8
  %9 = call ptr @CMS_get0_content(ptr noundef %8)
  store ptr %9, ptr %6, align 8, !tbaa !10
  %10 = load ptr, ptr %6, align 8, !tbaa !10
  %11 = icmp eq ptr %10, null
  br i1 %11, label %12, label %13

12:                                               ; preds = %2
  store i32 0, ptr %3, align 4
  store i32 1, ptr %7, align 4
  br label %40

13:                                               ; preds = %2
  %14 = load ptr, ptr %6, align 8, !tbaa !10
  %15 = load ptr, ptr %14, align 8, !tbaa !12
  %16 = icmp eq ptr %15, null
  br i1 %16, label %17, label %20

17:                                               ; preds = %13
  %18 = call ptr @ASN1_OCTET_STRING_new()
  %19 = load ptr, ptr %6, align 8, !tbaa !10
  store ptr %18, ptr %19, align 8, !tbaa !12
  br label %20

20:                                               ; preds = %17, %13
  %21 = load ptr, ptr %6, align 8, !tbaa !10
  %22 = load ptr, ptr %21, align 8, !tbaa !12
  %23 = icmp ne ptr %22, null
  br i1 %23, label %24, label %39

24:                                               ; preds = %20
  %25 = load ptr, ptr %6, align 8, !tbaa !10
  %26 = load ptr, ptr %25, align 8, !tbaa !12
  %27 = getelementptr inbounds nuw %struct.asn1_string_st, ptr %26, i32 0, i32 3
  %28 = load i64, ptr %27, align 8, !tbaa !14
  %29 = or i64 %28, 16
  store i64 %29, ptr %27, align 8, !tbaa !14
  %30 = load ptr, ptr %6, align 8, !tbaa !10
  %31 = load ptr, ptr %30, align 8, !tbaa !12
  %32 = getelementptr inbounds nuw %struct.asn1_string_st, ptr %31, i32 0, i32 3
  %33 = load i64, ptr %32, align 8, !tbaa !14
  %34 = and i64 %33, -33
  store i64 %34, ptr %32, align 8, !tbaa !14
  %35 = load ptr, ptr %6, align 8, !tbaa !10
  %36 = load ptr, ptr %35, align 8, !tbaa !12
  %37 = getelementptr inbounds nuw %struct.asn1_string_st, ptr %36, i32 0, i32 2
  %38 = load ptr, ptr %4, align 8, !tbaa !3
  store ptr %37, ptr %38, align 8, !tbaa !19
  store i32 1, ptr %3, align 4
  store i32 1, ptr %7, align 4
  br label %40

39:                                               ; preds = %20
  call void @ERR_new()
  call void @ERR_set_debug(ptr noundef @.str, i32 noundef 33, ptr noundef @__func__.CMS_stream)
  call void (i32, i32, ptr, ...) @ERR_set_error(i32 noundef 46, i32 noundef 524334, ptr noundef null)
  store i32 0, ptr %3, align 4
  store i32 1, ptr %7, align 4
  br label %40

40:                                               ; preds = %39, %24, %12
  call void @llvm.lifetime.end.p0(i64 8, ptr %6) #3
  %41 = load i32, ptr %3, align 4
  ret i32 %41
}