; Function Attrs: nounwind uwtable
define range(i32 0, 2) i32 @CMS_stream(ptr noundef writeonly captures(none) %0, ptr noundef %1) local_unnamed_addr #0 {
  %3 = tail call ptr @CMS_get0_content(ptr noundef %1) #2
  %4 = icmp eq ptr %3, null
  br i1 %4, label %17, label %5

5:                                                ; preds = %2
  %6 = load ptr, ptr %3, align 8, !tbaa !3
  %7 = icmp eq ptr %6, null
  br i1 %7, label %8, label %.thread

8:                                                ; preds = %5
  %9 = tail call ptr @ASN1_OCTET_STRING_new() #2
  store ptr %9, ptr %3, align 8, !tbaa !3
  %.not = icmp eq ptr %9, null
  br i1 %.not, label %16, label %.thread

.thread:                                          ; preds = %5, %8
  %10 = phi ptr [ %9, %8 ], [ %6, %5 ]
  %11 = getelementptr inbounds nuw i8, ptr %10, i64 16
  %12 = load i64, ptr %11, align 8, !tbaa !8
  %13 = and i64 %12, -49
  %14 = or disjoint i64 %13, 16
  store i64 %14, ptr %11, align 8, !tbaa !8
  %15 = getelementptr inbounds nuw i8, ptr %10, i64 8
  store ptr %15, ptr %0, align 8, !tbaa !13
  br label %17

16:                                               ; preds = %8
  tail call void @ERR_new() #2
  tail call void @ERR_set_debug(ptr noundef nonnull @.str, i32 noundef 33, ptr noundef nonnull @__func__.CMS_stream) #2
  tail call void (i32, i32, ptr, ...) @ERR_set_error(i32 noundef 46, i32 noundef 524334, ptr noundef null) #2
  br label %17

17:                                               ; preds = %2, %16, %.thread
  %.0 = phi i32 [ 1, %.thread ], [ 0, %16 ], [ 0, %2 ]
  ret i32 %.0
}